(dp0
V13868669
p1
c__builtin__
set
p2
((lp3
I9919718
atp4
Rp5
sV164772882
p6
g2
((lp7
I10449517
atp8
Rp9
sVdfqxfgytfbcc
p10
g2
((lp11
I35872672
atp12
Rp13
sVdrshmcyqnbxb
p14
g2
((lp15
I35872672
atp16
Rp17
sVqwvqdcyrlbmb
p18
g2
((lp19
I3869126
atp20
Rp21
sVqkxjdcysgbdc
p22
g2
((lp23
I9025024
atp24
Rp25
sV175209292
p26
g2
((lp27
I103726672
atp28
Rp29
sVqbhtblytmbqb
p30
g2
((lp31
I36353712
atp32
Rp33
sVdbmlkkysmbhc
p34
g2
((lp35
I152502762
atp36
Rp37
sVdrshmcyqjbkb
p38
g2
((lp39
I35872672
atp40
Rp41
sV219606837
p42
g2
((lp43
I7530046
atp44
Rp45
sVxvgznyqpbcc
p46
g2
((lp47
I4317127
atp48
Rp49
sVqmpxfgysdbnb
p50
g2
((lp51
I35872672
atp52
Rp53
sVdwcknynkbkb
p54
g2
((lp55
I3869126
atp56
Rp57
sVqhznlcyspblb
p58
g2
((lp59
I957998
atp60
Rp61
sVqqckqyshbfb
p62
g2
((lp63
I2650644
atp64
Rp65
sVdzmsdhytjbrb
p66
g2
((lp67
I36353712
atp68
Rp69
sVgkbqqyphbhb
p70
g2
((lp71
I1907671
atp72
Rp73
sVdlzkvjytfbwb
p74
g2
((lp75
I9487936
aI151454112
atp76
Rp77
sV196956512
p78
g2
((lp79
I9677030
atp80
Rp81
sVdvwxcfytdbfb
p82
g2
((lp83
I9025024
atp84
Rp85
sVhxcknynkbkb
p86
g2
((lp87
I3869126
atp88
Rp89
sVdtpstcyrkbnb
p90
g2
((lp91
I9025024
atp92
Rp93
sV21851731
p94
g2
((lp95
I356631
atp96
Rp97
sV223705417
p98
g2
((lp99
I10449517
atp100
Rp101
sVdfqxfgytdbcc
p102
g2
((lp103
I35872672
atp104
Rp105
sVdxbnpjytcbkb
p106
g2
((lp107
I16052661
atp108
Rp109
sVdtpstcysnblb
p110
g2
((lp111
I9025024
atp112
Rp113
sV16546481
p114
g2
((lp115
I3896245
atp116
Rp117
sVqsvfncyqlbhb
p118
g2
((lp119
I4171388
atp120
Rp121
sVqbcwscysnbbc
p122
g2
((lp123
I3869126
atp124
Rp125
sVdlhrpcyqjbdb
p126
g2
((lp127
I37047172
atp128
Rp129
sVrwpjhlytpbmc
p130
g2
((lp131
I27588662
atp132
Rp133
sVdlhrpcyqkbkb
p134
g2
((lp135
I37047172
atp136
Rp137
sVcwxktyqcbkb
p138
g2
((lp139
I9176316
atp140
Rp141
sVxvgznytfbpb
p142
g2
((lp143
I4317127
atp144
Rp145
sVqhznlcyskbqb
p146
g2
((lp147
I957998
atp148
Rp149
sVrnkjnynpbjb
p150
g2
((lp151
I2650644
atp152
Rp153
sV222579636
p154
g2
((lp155
I103726672
atp156
Rp157
sVqhznlcyqpbfb
p158
g2
((lp159
I957998
atp160
Rp161
sVqhznlcytqbqb
p162
g2
((lp163
I957998
atp164
Rp165
sVghvdhlytpbxb
p166
g2
((lp167
I35872672
atp168
Rp169
sV216984382
p170
g2
((lp171
I103726672
atp172
Rp173
sV12802355
p174
g2
((lp175
I9176316
atp176
Rp177
sVqmtrsfyrqbjc
p178
g2
((lp179
I17733261
atp180
Rp181
sVrnkjnynhbmc
p182
g2
((lp183
I2650644
atp184
Rp185
sVqskwflytkbjb
p186
g2
((lp187
I10713113
atp188
Rp189
sVqggbqypcblb
p190
g2
((lp191
I9176316
atp192
Rp193
sVqdcqqypgbfc
p194
g2
((lp195
I9176316
atp196
Rp197
sVtnsxglytjbtb
p198
g2
((lp199
I152502762
atp200
Rp201
sVdxwfzcyqlblb
p202
g2
((lp203
I36353712
atp204
Rp205
sV222039036
p206
g2
((lp207
I103726672
atp208
Rp209
sVdlhrpcyqhbhb
p210
g2
((lp211
I37047172
atp212
Rp213
sVqhznlcysdbtb
p214
g2
((lp215
I957998
atp216
Rp217
sVqwvqdcytdbrb
p218
g2
((lp219
I3869126
atp220
Rp221
sVbmrkqyphbhc
p222
g2
((lp223
I8289506
atp224
Rp225
sVqqbhwcyqlbdc
p226
g2
((lp227
I12916974
atp228
Rp229
sV225779309
p230
g2
((lp231
I2248391
atp232
Rp233
sV162552232
p234
g2
((lp235
I9677030
atp236
Rp237
sVptsfjlytnbbc
p238
g2
((lp239
I146349632
atp240
Rp241
sVcnrktyplbcc
p242
g2
((lp243
I9176316
atp244
Rp245
sVdfzlzjysmbgc
p246
g2
((lp247
I8626128
atp248
Rp249
sVdccqqypgbwb
p250
g2
((lp251
I9176316
atp252
Rp253
sVqqckqytnbwb
p254
g2
((lp255
I2650644
atp256
Rp257
sVqhznlcysfbmc
p258
g2
((lp259
I957998
atp260
Rp261
sV222038855
p262
g2
((lp263
I103726672
atp264
Rp265
sV222282075
p266
g2
((lp267
I9453828
atp268
Rp269
sV215605682
p270
g2
((lp271
I9677030
atp272
Rp273
sVcdzktyqcbtb
p274
g2
((lp275
I9176316
atp276
Rp277
sVddslnynhbpc
p278
g2
((lp279
I9176316
atp280
Rp281
sVxxlcqyqcbgb
p282
g2
((lp283
I5761328
atp284
Rp285
sVqhznlcyqmbdc
p286
g2
((lp287
I957998
atp288
Rp289
sVqhznlcytfbcc
p290
g2
((lp291
I957998
atp292
Rp293
sVqxmxccyqdbrb
p294
g2
((lp295
I3869126
atp296
Rp297
sVqbcwscytfbfc
p298
g2
((lp299
I3869126
atp300
Rp301
sVdrshmcyrhbmb
p302
g2
((lp303
I35872672
atp304
Rp305
sVdlwdcfyrgbhc
p306
g2
((lp307
I12767407
atp308
Rp309
sVqknvqcytqblb
p310
g2
((lp311
I13199566
atp312
Rp313
sVdfmjzfyvcbmb
p314
g2
((lp315
I36353712
atp316
Rp317
sVqtzncfyrfbcc
p318
g2
((lp319
I5091165
atp320
Rp321
sVqhznlcyskbjc
p322
g2
((lp323
I957998
atp324
Rp325
sVddzscjyshbxb
p326
g2
((lp327
I3228085
atp328
Rp329
sVqbcwscytdbvb
p330
g2
((lp331
I3869126
atp332
Rp333
sVdcpvfcyqcbjc
p334
g2
((lp335
I17733261
atp336
Rp337
sV219943139
p338
g2
((lp339
I3918990
atp340
Rp341
sVdkshmcyqnbjb
p342
g2
((lp343
I35872672
atp344
Rp345
sVbbkznynnbgc
p346
g2
((lp347
I9176316
atp348
Rp349
sVdskjtdyqqbgb
p350
g2
((lp351
I12557832
aI13171345
atp352
Rp353
sVqcgkkgyslbkb
p354
g2
((lp355
I79533992
atp356
Rp357
sVqknvqcytmbmc
p358
g2
((lp359
I13199566
atp360
Rp361
sVqfxxrkysnbjb
p362
g2
((lp363
I2650644
atp364
Rp365
sV227425262
p366
g2
((lp367
I103726672
atp368
Rp369
sVkwcznynlbkb
p370
g2
((lp371
I9176316
atp372
Rp373
sVqhznlcyrnbjc
p374
g2
((lp375
I957998
atp376
Rp377
sV15122659
p378
g2
((lp379
I13059604
atp380
Rp381
sVqqckqyqmbtb
p382
g2
((lp383
I2650644
atp384
Rp385
sVqknvqcytmbdc
p386
g2
((lp387
I13199566
atp388
Rp389
sV221285889
p390
g2
((lp391
I7888791
atp392
Rp393
sVqhznlcyqkbsb
p394
g2
((lp395
I957998
atp396
Rp397
sV226716719
p398
g2
((lp399
I103726672
atp400
Rp401
sV223630759
p402
g2
((lp403
I66378772
atp404
Rp405
sV223863567
p406
g2
((lp407
I9677030
atp408
Rp409
sVdtffmfytnbkc
p410
g2
((lp411
I6218632
atp412
Rp413
sVxvgznyspbqb
p414
g2
((lp415
I4317127
atp416
Rp417
sVrnkjnynqbpb
p418
g2
((lp419
I5970683
atp420
Rp421
sVssxlflytjbmc
p422
g2
((lp423
I2650644
atp424
Rp425
sVqmskvdyslbnc
p426
g2
((lp427
I29046852
atp428
Rp429
sVqztsqfyrmbhb
p430
g2
((lp431
I59616222
atp432
Rp433
sV216981892
p434
g2
((lp435
I103726672
atp436
Rp437
sV107715492
p438
g2
((lp439
I36353712
atp440
Rp441
sV205138772
p442
g2
((lp443
I99578952
atp444
Rp445
sVdnwzpypmbbc
p446
g2
((lp447
I4903590
atp448
Rp449
sV219279743
p450
g2
((lp451
I93436472
atp452
Rp453
sV135942142
p454
g2
((lp455
I36353712
atp456
Rp457
sVqmpxfgysfbnb
p458
g2
((lp459
I35872672
atp460
Rp461
sV114168752
p462
g2
((lp463
I8571220
atp464
Rp465
sVqwzgwfyspbdb
p466
g2
((lp467
I14339455
atp468
Rp469
sVqqckqyqpbwb
p470
g2
((lp471
I2650644
atp472
Rp473
sV189929252
p474
g2
((lp475
I112177462
atp476
Rp477
sV227871037
p478
g2
((lp479
I12147185
atp480
Rp481
sVqlthmcyqqbvb
p482
g2
((lp483
I35872672
atp484
Rp485
sVqbcwscyqlbrb
p486
g2
((lp487
I3869126
atp488
Rp489
sV17257888
p490
g2
((lp491
I14098228
aI3896245
atp492
Rp493
sVqppxfgyrnbsb
p494
g2
((lp495
I35872672
atp496
Rp497
sVqqckqyqgbcc
p498
g2
((lp499
I2650644
atp500
Rp501
sV222157966
p502
g2
((lp503
I46765022
atp504
Rp505
sVcfjdxyqgbhc
p506
g2
((lp507
I12916974
atp508
Rp509
sVqvrgqypdbrb
p510
g2
((lp511
I9176316
atp512
Rp513
sVdtffmfytqbdc
p514
g2
((lp515
I6218632
atp516
Rp517
sVdlgzpcysmbwb
p518
g2
((lp519
I9254651
atp520
Rp521
sVdxntfcyqcbgc
p522
g2
((lp523
I12557832
aI13171345
atp524
Rp525
sV194354412
p526
g2
((lp527
I103726672
atp528
Rp529
sVnbdknypcbsb
p530
g2
((lp531
I3869126
atp532
Rp533
sVxvgznyqcbxb
p534
g2
((lp535
I4317127
atp536
Rp537
sV218579387
p538
g2
((lp539
I66378772
atp540
Rp541
sVdrbhffyrpbmb
p542
g2
((lp543
I36353712
atp544
Rp545
sVcjnjxypmbsb
p546
g2
((lp547
I2248391
atp548
Rp549
sV214829752
p550
g2
((lp551
I36472362
atp552
Rp553
sV219310075
p554
g2
((lp555
I103726672
atp556
Rp557
sVqbhtblytfblc
p558
g2
((lp559
I36353712
atp560
Rp561
sVqfdclcyqgbjc
p562
g2
((lp563
I12767407
atp564
Rp565
sVzvrgqypfbjc
p566
g2
((lp567
I9176316
atp568
Rp569
sVqbcwscytjbtb
p570
g2
((lp571
I3869126
atp572
Rp573
sV205078222
p574
g2
((lp575
I46765022
atp576
Rp577
sVdvwxcfytqbmc
p578
g2
((lp579
I9025024
atp580
Rp581
sVfcfkqyqcbmc
p582
g2
((lp583
I5091165
atp584
Rp585
sV12585078
p586
g2
((lp587
I9176316
atp588
Rp589
sVqfpbpjyskbmc
p590
g2
((lp591
I146349632
atp592
Rp593
sVdnscvkytmbdb
p594
g2
((lp595
I8626128
aI12412996
atp596
Rp597
sV14470574
p598
g2
((lp599
I9176316
atp600
Rp601
sVrgpxnynpbfb
p602
g2
((lp603
I9176316
atp604
Rp605
sV14036770
p606
g2
((lp607
I9176316
atp608
Rp609
sVrgpxnynmbvb
p610
g2
((lp611
I9176316
atp612
Rp613
sVcjnjxypmblc
p614
g2
((lp615
I2248391
atp616
Rp617
sVwlnqnynjbhb
p618
g2
((lp619
I2936352
atp620
Rp621
sVqhznlcyrqbcc
p622
g2
((lp623
I957998
atp624
Rp625
sVqhznlcyqjbmb
p626
g2
((lp627
I957998
atp628
Rp629
sVqgpplcyqfblb
p630
g2
((lp631
I9043318
aI14431774
atp632
Rp633
sVhxcknynjbvb
p634
g2
((lp635
I3869126
atp636
Rp637
sV12813458
p638
g2
((lp639
I9176316
atp640
Rp641
sVqqqxrcyrlbbc
p642
g2
((lp643
I843624
atp644
Rp645
sVqqckqyrkbjb
p646
g2
((lp647
I2650644
atp648
Rp649
sVqbcwscytlbpc
p650
g2
((lp651
I3869126
atp652
Rp653
sVqzjdqypcbdc
p654
g2
((lp655
I2884706
aI4898260
aI4576146
aI4584030
atp656
Rp657
sVjcprjlytpbmc
p658
g2
((lp659
I12563492
atp660
Rp661
sVrlxfnynkbbc
p662
g2
((lp663
I4903590
atp664
Rp665
sV200788922
p666
g2
((lp667
I10936946
atp668
Rp669
sVdkpbpjyskbmc
p670
g2
((lp671
I146349632
atp672
Rp673
sVdkpbpjyskbmb
p674
g2
((lp675
I146349632
atp676
Rp677
sV164773292
p678
g2
((lp679
I10449517
atp680
Rp681
sVqzwshdyqpbxb
p682
g2
((lp683
I7888791
atp684
Rp685
sV224883148
p686
g2
((lp687
I9487936
atp688
Rp689
sVqmpxfgysjbpb
p690
g2
((lp691
I35872672
atp692
Rp693
sVqqhtblytpbkb
p694
g2
((lp695
I36353712
atp696
Rp697
sV221204984
p698
g2
((lp699
I103726672
atp700
Rp701
sV192280982
p702
g2
((lp703
I66378772
atp704
Rp705
sVwcvdjlytlbjb
p706
g2
((lp707
I94279652
aI184010716
atp708
Rp709
sV148152272
p710
g2
((lp711
I10048858
atp712
Rp713
sV13868631
p714
g2
((lp715
I2066290
aI5216926
atp716
Rp717
sV54713022
p718
g2
((lp719
I4911683
atp720
Rp721
sVdnscvkytqbvb
p722
g2
((lp723
I8626128
aI12412996
atp724
Rp725
sVqbcwscysjbfc
p726
g2
((lp727
I3869126
atp728
Rp729
sVhxcknyngblc
p730
g2
((lp731
I3869126
atp732
Rp733
sVqkxjdcyrnbtb
p734
g2
((lp735
I9025024
atp736
Rp737
sVqhznlcyskbzb
p738
g2
((lp739
I957998
atp740
Rp741
sV69795242
p742
g2
((lp743
I8571220
atp744
Rp745
sVzvrgqypdbjc
p746
g2
((lp747
I9176316
atp748
Rp749
sV14581181
p750
g2
((lp751
I921808
atp752
Rp753
sVdnscvkysnbtb
p754
g2
((lp755
I8626128
aI12412996
atp756
Rp757
sVnbdknynqbnb
p758
g2
((lp759
I3869126
atp760
Rp761
sVqhznlcyrfbnc
p762
g2
((lp763
I957998
atp764
Rp765
sVqppxfgyrqbxb
p766
g2
((lp767
I35872672
atp768
Rp769
sV221446204
p770
g2
((lp771
I77289942
atp772
Rp773
sV11016909
p774
g2
((lp775
I7092500
atp776
Rp777
sV101501252
p778
g2
((lp779
I698468
atp780
Rp781
sV141036832
p782
g2
((lp783
I9677030
atp784
Rp785
sVqhznlcysdbcb
p786
g2
((lp787
I957998
atp788
Rp789
sV222047147
p790
g2
((lp791
I103726672
atp792
Rp793
sV223602687
p794
g2
((lp795
I27365402
aI184314572
atp796
Rp797
sV219948051
p798
g2
((lp799
I66378772
atp800
Rp801
sV219215471
p802
g2
((lp803
I46765022
atp804
Rp805
sVdvvzhcyqdbsb
p806
g2
((lp807
I11189707
atp808
Rp809
sVxxlcqyqfbkb
p810
g2
((lp811
I5761328
atp812
Rp813
sVqmskvdyrcbjc
p814
g2
((lp815
I29046852
atp816
Rp817
sVssxlflytlbfb
p818
g2
((lp819
I2650644
atp820
Rp821
sV224544043
p822
g2
((lp823
I2248391
atp824
Rp825
sV11722646
p826
g2
((lp827
I4866436
aI4898260
atp828
Rp829
sV221750382
p830
g2
((lp831
I1602608
atp832
Rp833
sVdnscvkytgbtb
p834
g2
((lp835
I8626128
aI12412996
atp836
Rp837
sV226511183
p838
g2
((lp839
I50238192
atp840
Rp841
sV80293652
p842
g2
((lp843
I2248391
atp844
Rp845
sVcqlzhlytlbjc
p846
g2
((lp847
I54108972
atp848
Rp849
sVqhznlcyrkbbc
p850
g2
((lp851
I957998
atp852
Rp853
sVqwvqdcyvcblb
p854
g2
((lp855
I3869126
atp856
Rp857
sVqbhtblytpbsb
p858
g2
((lp859
I36353712
atp860
Rp861
sV170496822
p862
g2
((lp863
I103726672
atp864
Rp865
sV8632523
p866
g2
((lp867
I4866436
atp868
Rp869
sVqkxjdcytgbsb
p870
g2
((lp871
I9025024
atp872
Rp873
sV203263742
p874
g2
((lp875
I2770679
atp876
Rp877
sV11811521
p878
g2
((lp879
I3254610
atp880
Rp881
sVqhznlcyshbwb
p882
g2
((lp883
I957998
atp884
Rp885
sVdcpvfcyqgbhb
p886
g2
((lp887
I17733261
atp888
Rp889
sVdwcknynjbfc
p890
g2
((lp891
I3869126
atp892
Rp893
sVqsznvfytcbpb
p894
g2
((lp895
I6218632
atp896
Rp897
sV198116392
p898
g2
((lp899
I103726672
atp900
Rp901
sVzrmlnynhbkc
p902
g2
((lp903
I3869126
atp904
Rp905
sVqpwzhcyqhbtb
p906
g2
((lp907
I3415066
atp908
Rp909
sVqmskvdyshbwb
p910
g2
((lp911
I29046852
atp912
Rp913
sV225965134
p914
g2
((lp915
I112177462
atp916
Rp917
sVjwcznynlbcc
p918
g2
((lp919
I9176316
atp920
Rp921
sV11717343
p922
g2
((lp923
I2884706
aI4898260
atp924
Rp925
sVzzcknynlbnc
p926
g2
((lp927
I3869126
atp928
Rp929
sV227197955
p930
g2
((lp931
I103726672
atp932
Rp933
sVdlgzpcytcbkb
p934
g2
((lp935
I9254651
atp936
Rp937
sV228070783
p938
g2
((lp939
I103726672
atp940
Rp941
sVqqckqyqhbhb
p942
g2
((lp943
I2650644
atp944
Rp945
sVqbhtblytjbbc
p946
g2
((lp947
I36353712
atp948
Rp949
sV185129412
p950
g2
((lp951
I4828172
aI356631
atp952
Rp953
sVqhznlcyrhbhc
p954
g2
((lp955
I957998
atp956
Rp957
sVqhznlcytpbsb
p958
g2
((lp959
I957998
atp960
Rp961
sVqjwrgkysnbcb
p962
g2
((lp963
I8626128
atp964
Rp965
sVngmxdlytdbgc
p966
g2
((lp967
I12557832
aI65661072
atp968
Rp969
sVdvwxcfyskbnb
p970
g2
((lp971
I9025024
atp972
Rp973
sVqqckqypkbnc
p974
g2
((lp975
I2650644
atp976
Rp977
sV219918545
p978
g2
((lp979
I103726672
atp980
Rp981
sVqxwxcfyvcbgb
p982
g2
((lp983
I9025024
atp984
Rp985
sVvlnqnynjbhb
p986
g2
((lp987
I2936352
atp988
Rp989
sV12823393
p990
g2
((lp991
I9254651
atp992
Rp993
sV190180992
p994
g2
((lp995
I112177462
atp996
Rp997
sVvhnknynhbnc
p998
g2
((lp999
I9176316
atp1000
Rp1001
sV71398502
p1002
g2
((lp1003
I1785570
atp1004
Rp1005
sVqhznlcyrdbmb
p1006
g2
((lp1007
I957998
atp1008
Rp1009
sVqhznlcysjblc
p1010
g2
((lp1011
I957998
atp1012
Rp1013
sVdvwxcfytmblb
p1014
g2
((lp1015
I9025024
atp1016
Rp1017
sV221394352
p1018
g2
((lp1019
I103726672
atp1020
Rp1021
sVnhpwnynkbpc
p1022
g2
((lp1023
I9176316
atp1024
Rp1025
sVdhcmfkytjbzb
p1026
g2
((lp1027
I13133195
atp1028
Rp1029
sVgkbqqypfbpc
p1030
g2
((lp1031
I1907671
atp1032
Rp1033
sVqbhtblytlblb
p1034
g2
((lp1035
I36353712
atp1036
Rp1037
sVmxcknynkbtb
p1038
g2
((lp1039
I3869126
atp1040
Rp1041
sV223111084
p1042
g2
((lp1043
I10449517
atp1044
Rp1045
sVdrshmcysdbjb
p1046
g2
((lp1047
I35872672
atp1048
Rp1049
sV226173697
p1050
g2
((lp1051
I103726672
atp1052
Rp1053
sV12813127
p1054
g2
((lp1055
I9176316
atp1056
Rp1057
sVxsvcglytgbmb
p1058
g2
((lp1059
I94279652
atp1060
Rp1061
sVqsznvfyshbpb
p1062
g2
((lp1063
I6218632
atp1064
Rp1065
sV8785978
p1066
g2
((lp1067
I4166535
atp1068
Rp1069
sVhwjznynpbbc
p1070
g2
((lp1071
I9176316
atp1072
Rp1073
sVnbdknyppbpb
p1074
g2
((lp1075
I3869126
atp1076
Rp1077
sV169031692
p1078
g2
((lp1079
I2248391
atp1080
Rp1081
sVqhznlcyrdbfc
p1082
g2
((lp1083
I957998
atp1084
Rp1085
sVdccqqyphbmc
p1086
g2
((lp1087
I9176316
atp1088
Rp1089
sV73430742
p1090
g2
((lp1091
I6218632
atp1092
Rp1093
sVdcpvfcyqjbcc
p1094
g2
((lp1095
I17733261
atp1096
Rp1097
sV224915559
p1098
g2
((lp1099
I103726672
atp1100
Rp1101
sVqtzvhlytmbmb
p1102
g2
((lp1103
I6590248
atp1104
Rp1105
sVqbhtblytlbcb
p1106
g2
((lp1107
I36353712
atp1108
Rp1109
sVdlhrpcyqkbcc
p1110
g2
((lp1111
I37047172
atp1112
Rp1113
sV25840181
p1114
g2
((lp1115
I8571220
atp1116
Rp1117
sVdfjtblytgbgb
p1118
g2
((lp1119
I36353712
atp1120
Rp1121
sVdqpxfgyrqbdb
p1122
g2
((lp1123
I35872672
atp1124
Rp1125
sV183124652
p1126
g2
((lp1127
I9677030
atp1128
Rp1129
sVdnscvkytcbsb
p1130
g2
((lp1131
I8626128
aI12412996
atp1132
Rp1133
sV17241006
p1134
g2
((lp1135
I9176316
atp1136
Rp1137
sV8577288
p1138
g2
((lp1139
I494421
atp1140
Rp1141
sVdnscvkytpbpb
p1142
g2
((lp1143
I8626128
aI12412996
atp1144
Rp1145
sV164046392
p1146
g2
((lp1147
I9264635
atp1148
Rp1149
sVqvrgqypdbjb
p1150
g2
((lp1151
I9176316
atp1152
Rp1153
sVdlwdcfyrkbhc
p1154
g2
((lp1155
I12767407
atp1156
Rp1157
sVdvwxcfysjbzb
p1158
g2
((lp1159
I9025024
atp1160
Rp1161
sV224037342
p1162
g2
((lp1163
I9453828
atp1164
Rp1165
sVqxmxccyqfbhb
p1166
g2
((lp1167
I3869126
atp1168
Rp1169
sVvknwdlytfblc
p1170
g2
((lp1171
I93791922
aI51294532
atp1172
Rp1173
sVqknvqcytfbgc
p1174
g2
((lp1175
I13199566
atp1176
Rp1177
sVqqmgbcypmbdb
p1178
g2
((lp1179
I11598854
atp1180
Rp1181
sVqbcwscyskbcc
p1182
g2
((lp1183
I3869126
atp1184
Rp1185
sVqdsxgkytlbxb
p1186
g2
((lp1187
I112177462
atp1188
Rp1189
sVnhpwnynnbfc
p1190
g2
((lp1191
I9176316
atp1192
Rp1193
sV221948517
p1194
g2
((lp1195
I11464906
atp1196
Rp1197
sVdttxfjyshbgc
p1198
g2
((lp1199
I7092500
atp1200
Rp1201
sVdwgqcdyrjbpb
p1202
g2
((lp1203
I5761328
atp1204
Rp1205
sV158042612
p1206
g2
((lp1207
I103726672
atp1208
Rp1209
sV221260573
p1210
g2
((lp1211
I127409112
atp1212
Rp1213
sV12595997
p1214
g2
((lp1215
I9677030
atp1216
Rp1217
sVdtffmfyrmbgc
p1218
g2
((lp1219
I6218632
atp1220
Rp1221
sVqhznlcyrfbfc
p1222
g2
((lp1223
I957998
atp1224
Rp1225
sV207518462
p1226
g2
((lp1227
I103726672
atp1228
Rp1229
sVqtzncfyrnbgc
p1230
g2
((lp1231
I5091165
atp1232
Rp1233
sV181639252
p1234
g2
((lp1235
I3108235
atp1236
Rp1237
sVqlcgljytgbpb
p1238
g2
((lp1239
I4248113
atp1240
Rp1241
sVqbhtblyspbmc
p1242
g2
((lp1243
I36353712
atp1244
Rp1245
sV8649476
p1246
g2
((lp1247
I494421
atp1248
Rp1249
sV8649475
p1250
g2
((lp1251
I494421
atp1252
Rp1253
sV11830235
p1254
g2
((lp1255
I2884706
aI4898260
atp1256
Rp1257
sV227198225
p1258
g2
((lp1259
I103726672
atp1260
Rp1261
sVptwjtypnbdc
p1262
g2
((lp1263
I9176316
atp1264
Rp1265
sV176423772
p1266
g2
((lp1267
I103726672
atp1268
Rp1269
sVdnscvkytjbgc
p1270
g2
((lp1271
I8626128
aI12412996
atp1272
Rp1273
sV8649479
p1274
g2
((lp1275
I494421
atp1276
Rp1277
sVqqbhwcyrkbgc
p1278
g2
((lp1279
I2635433
aI53124732
aI12916974
atp1280
Rp1281
sVdcpvfcyqjbkb
p1282
g2
((lp1283
I17733261
atp1284
Rp1285
sVcnrktyplbkb
p1286
g2
((lp1287
I9176316
atp1288
Rp1289
sVfcfkqyplbcc
p1290
g2
((lp1291
I5091165
atp1292
Rp1293
sV155904032
p1294
g2
((lp1295
I3487569
atp1296
Rp1297
sVqhznlcytlbdc
p1298
g2
((lp1299
I957998
atp1300
Rp1301
sVqfpbpjysnbnb
p1302
g2
((lp1303
I146349632
atp1304
Rp1305
sV223295173
p1306
g2
((lp1307
I78239482
atp1308
Rp1309
sVdvwxcfytgbcc
p1310
g2
((lp1311
I9025024
atp1312
Rp1313
sV82660882
p1314
g2
((lp1315
I2248391
atp1316
Rp1317
sVdqpxfgyrlbjc
p1318
g2
((lp1319
I35872672
atp1320
Rp1321
sVqcgkkgyslbcc
p1322
g2
((lp1323
I79533992
atp1324
Rp1325
sVqwvqdcysjbrb
p1326
g2
((lp1327
I3869126
atp1328
Rp1329
sVqppxfgyrlbkb
p1330
g2
((lp1331
I35872672
atp1332
Rp1333
sV225057577
p1334
g2
((lp1335
I127858022
atp1336
Rp1337
sVqqbhwcyqkbhc
p1338
g2
((lp1339
I12916974
atp1340
Rp1341
sVdpshmcytcbbc
p1342
g2
((lp1343
I35872672
atp1344
Rp1345
sVqzslqjysjbmc
p1346
g2
((lp1347
I2047977
atp1348
Rp1349
sVqhznlcyrhbgb
p1350
g2
((lp1351
I957998
atp1352
Rp1353
sV223476140
p1354
g2
((lp1355
I72375872
aI6439119
atp1356
Rp1357
sV170499192
p1358
g2
((lp1359
I103726672
atp1360
Rp1361
sVdlgzpcyqmbzb
p1362
g2
((lp1363
I9254651
atp1364
Rp1365
sVdpshmcyrfbqb
p1366
g2
((lp1367
I35872672
atp1368
Rp1369
sVdcpvfcyqqbbc
p1370
g2
((lp1371
I17733261
atp1372
Rp1373
sV65065752
p1374
g2
((lp1375
I8571220
atp1376
Rp1377
sV210402122
p1378
g2
((lp1379
I103726672
atp1380
Rp1381
sVqcgkkgyscbdb
p1382
g2
((lp1383
I79533992
atp1384
Rp1385
sVdfmjzfytfbcc
p1386
g2
((lp1387
I36353712
atp1388
Rp1389
sVqkxjdcysdbgb
p1390
g2
((lp1391
I9025024
atp1392
Rp1393
sVzzcknynlbmb
p1394
g2
((lp1395
I3869126
atp1396
Rp1397
sVdlzncfyrfbfb
p1398
g2
((lp1399
I5091165
atp1400
Rp1401
sVqhznlcytmbqb
p1402
g2
((lp1403
I957998
atp1404
Rp1405
sVzffrclyspbhc
p1406
g2
((lp1407
I8470999
atp1408
Rp1409
sVqvgtblytgbgb
p1410
g2
((lp1411
I36472362
atp1412
Rp1413
sVdfmjzfytnbpc
p1414
g2
((lp1415
I36353712
atp1416
Rp1417
sVqqhtblythbvb
p1418
g2
((lp1419
I36353712
atp1420
Rp1421
sVqztsqfyrhbnc
p1422
g2
((lp1423
I59616222
atp1424
Rp1425
sVqhznlcyqjbnc
p1426
g2
((lp1427
I957998
atp1428
Rp1429
sVdvwxcfyrjbbc
p1430
g2
((lp1431
I9025024
atp1432
Rp1433
sVqhznlcytdbcc
p1434
g2
((lp1435
I957998
atp1436
Rp1437
sV167436172
p1438
g2
((lp1439
I6218632
atp1440
Rp1441
sVqztsqfytmbgc
p1442
g2
((lp1443
I59616222
atp1444
Rp1445
sVqvhdwgyrnblb
p1446
g2
((lp1447
I10995097
atp1448
Rp1449
sV176424692
p1450
g2
((lp1451
I103726672
atp1452
Rp1453
sVqlthmcyrlbhc
p1454
g2
((lp1455
I35872672
atp1456
Rp1457
sVqbcwscyqkbfc
p1458
g2
((lp1459
I3869126
atp1460
Rp1461
sV220721792
p1462
g2
((lp1463
I66378772
atp1464
Rp1465
sV8813399
p1466
g2
((lp1467
I2650644
atp1468
Rp1469
sVqkxjdcysfbgb
p1470
g2
((lp1471
I9025024
atp1472
Rp1473
sVvmkmqypfbjb
p1474
g2
((lp1475
I7092500
atp1476
Rp1477
sV222081785
p1478
g2
((lp1479
I11344723
atp1480
Rp1481
sVdfjtblytjbbc
p1482
g2
((lp1483
I36353712
atp1484
Rp1485
sVdvwxcfytcbkc
p1486
g2
((lp1487
I9025024
atp1488
Rp1489
sVcjnjxypmbkb
p1490
g2
((lp1491
I2248391
atp1492
Rp1493
sVdlpxpcyqgbgc
p1494
g2
((lp1495
I35872672
atp1496
Rp1497
sVdpshmcyrpbjc
p1498
g2
((lp1499
I35872672
atp1500
Rp1501
sV180830922
p1502
g2
((lp1503
I103726672
atp1504
Rp1505
sVqwvqdcytlbsb
p1506
g2
((lp1507
I3869126
atp1508
Rp1509
sVqvhdwgyrpbjb
p1510
g2
((lp1511
I10995097
atp1512
Rp1513
sVzrmlnynjbnb
p1514
g2
((lp1515
I3869126
atp1516
Rp1517
sVqtzncfyscbmb
p1518
g2
((lp1519
I5091165
atp1520
Rp1521
sVdrbhffyvcbmb
p1522
g2
((lp1523
I36472362
atp1524
Rp1525
sVdswzhcyqgbgc
p1526
g2
((lp1527
I10051760
atp1528
Rp1529
sVdtwcdcyqkbhb
p1530
g2
((lp1531
I11355128
atp1532
Rp1533
sVqspxfgytfbdc
p1534
g2
((lp1535
I35872672
atp1536
Rp1537
sVqrjqglytmbjc
p1538
g2
((lp1539
I8470999
atp1540
Rp1541
sV216981752
p1542
g2
((lp1543
I103726672
atp1544
Rp1545
sVqbcwscyvcbgb
p1546
g2
((lp1547
I3869126
atp1548
Rp1549
sVqxwxcfytqbcc
p1550
g2
((lp1551
I9025024
atp1552
Rp1553
sV13760096
p1554
g2
((lp1555
I6590248
atp1556
Rp1557
sV222579784
p1558
g2
((lp1559
I103726672
atp1560
Rp1561
sVdpshmcyqkbfb
p1562
g2
((lp1563
I35872672
atp1564
Rp1565
sVzzcknyplblb
p1566
g2
((lp1567
I3869126
atp1568
Rp1569
sVdsxwdcypnbpb
p1570
g2
((lp1571
I11189707
atp1572
Rp1573
sVqbcwscyrfbgb
p1574
g2
((lp1575
I3869126
atp1576
Rp1577
sVdtcmtcyqmbzb
p1578
g2
((lp1579
I6048370
atp1580
Rp1581
sV224466497
p1582
g2
((lp1583
I103726672
atp1584
Rp1585
sV220238747
p1586
g2
((lp1587
I10048858
atp1588
Rp1589
sVqspxfgyslbpc
p1590
g2
((lp1591
I35872672
atp1592
Rp1593
sVqdsxgkyspbgb
p1594
g2
((lp1595
I112177462
atp1596
Rp1597
sVqbcwscyscbbc
p1598
g2
((lp1599
I3869126
atp1600
Rp1601
sVqrpxfgysqbqb
p1602
g2
((lp1603
I35872672
atp1604
Rp1605
sV54669552
p1606
g2
((lp1607
I8074077
atp1608
Rp1609
sV222038666
p1610
g2
((lp1611
I103726672
atp1612
Rp1613
sVcgxkhlytkbkc
p1614
g2
((lp1615
I91730022
atp1616
Rp1617
sVxvgznyqjbjb
p1618
g2
((lp1619
I4317127
atp1620
Rp1621
sVdfjtblytnbpc
p1622
g2
((lp1623
I36353712
atp1624
Rp1625
sVxvgznyrkbgc
p1626
g2
((lp1627
I4317127
atp1628
Rp1629
sVdncwzhysgbqb
p1630
g2
((lp1631
I35872672
atp1632
Rp1633
sVbbjcqyppbdc
p1634
g2
((lp1635
I5807873
aI3415066
atp1636
Rp1637
sVdxbnpjytlbjc
p1638
g2
((lp1639
I16052661
atp1640
Rp1641
sV224915938
p1642
g2
((lp1643
I103726672
atp1644
Rp1645
sVdtcmtcyqqbzb
p1646
g2
((lp1647
I6048370
atp1648
Rp1649
sVbktznynmbxb
p1650
g2
((lp1651
I2884706
aI4898260
atp1652
Rp1653
sVqxmxccyqgbdb
p1654
g2
((lp1655
I3869126
atp1656
Rp1657
sVqzhpffyrkbxb
p1658
g2
((lp1659
I11355128
atp1660
Rp1661
sVqhznlcytgbpb
p1662
g2
((lp1663
I957998
atp1664
Rp1665
sVbmrkqypgbkc
p1666
g2
((lp1667
I8289506
atp1668
Rp1669
sVdfjtblytfblc
p1670
g2
((lp1671
I36353712
atp1672
Rp1673
sVdfqxfgyslbnc
p1674
g2
((lp1675
I35872672
atp1676
Rp1677
sV176424132
p1678
g2
((lp1679
I103726672
atp1680
Rp1681
sV225905498
p1682
g2
((lp1683
I89781042
atp1684
Rp1685
sV161651952
p1686
g2
((lp1687
I2248391
atp1688
Rp1689
sVdkshmcyspbtb
p1690
g2
((lp1691
I35872672
atp1692
Rp1693
sVbbjcqypgbjc
p1694
g2
((lp1695
I5807873
aI3415066
atp1696
Rp1697
sVqvhdwgyscbcb
p1698
g2
((lp1699
I5761328
atp1700
Rp1701
sVrlxfnynlbwb
p1702
g2
((lp1703
I4903590
atp1704
Rp1705
sVwcvdjlytlbbc
p1706
g2
((lp1707
I94279652
aI184010716
atp1708
Rp1709
sVqtzncfysgbgc
p1710
g2
((lp1711
I5091165
atp1712
Rp1713
sVnqbthlytlbrb
p1714
g2
((lp1715
I12557832
atp1716
Rp1717
sV216980772
p1718
g2
((lp1719
I103726672
atp1720
Rp1721
sVdrbhffyrmblc
p1722
g2
((lp1723
I36353712
atp1724
Rp1725
sVfxrqnlyvcbrb
p1726
g2
((lp1727
I146306302
atp1728
Rp1729
sVdzmsdhytqbjc
p1730
g2
((lp1731
I36353712
atp1732
Rp1733
sVrwpjhlytmbbc
p1734
g2
((lp1735
I27588662
atp1736
Rp1737
sV13380440
p1738
g2
((lp1739
I9176316
atp1740
Rp1741
sVqnfrkjyshbnc
p1742
g2
((lp1743
I10672496
aI7536761
atp1744
Rp1745
sVmxcknyngbmc
p1746
g2
((lp1747
I3869126
atp1748
Rp1749
sVqdsxgkytfbgc
p1750
g2
((lp1751
I112177462
atp1752
Rp1753
sV221826382
p1754
g2
((lp1755
I66378772
atp1756
Rp1757
sVqhznlcyqmblb
p1758
g2
((lp1759
I957998
atp1760
Rp1761
sVqkxjdcyrkbmb
p1762
g2
((lp1763
I9025024
atp1764
Rp1765
sV15670929
p1766
g2
((lp1767
I9428157
atp1768
Rp1769
sVcbbnflytdbjc
p1770
g2
((lp1771
I112177462
atp1772
Rp1773
sVzzcknyplbdc
p1774
g2
((lp1775
I3869126
atp1776
Rp1777
sVdqpxfgysmbcb
p1778
g2
((lp1779
I35872672
atp1780
Rp1781
sV12386720
p1782
g2
((lp1783
I4866436
aI4898260
atp1784
Rp1785
sVqknvqcytqbtb
p1786
g2
((lp1787
I13199566
atp1788
Rp1789
sV219412469
p1790
g2
((lp1791
I103726672
atp1792
Rp1793
sV8212092
p1794
g2
((lp1795
I2884706
atp1796
Rp1797
sV207173522
p1798
g2
((lp1799
I103726672
atp1800
Rp1801
sVqztsqfysjbhb
p1802
g2
((lp1803
I59616222
atp1804
Rp1805
sVdfzlzjyslbjb
p1806
g2
((lp1807
I8626128
atp1808
Rp1809
sVqknvqcysnbsb
p1810
g2
((lp1811
I13199566
atp1812
Rp1813
sV224607198
p1814
g2
((lp1815
I9487936
atp1816
Rp1817
sV10595641
p1818
g2
((lp1819
I4866436
atp1820
Rp1821
sV221204778
p1822
g2
((lp1823
I103726672
atp1824
Rp1825
sVqhznlcyrkbjb
p1826
g2
((lp1827
I957998
atp1828
Rp1829
sV190772252
p1830
g2
((lp1831
I103726672
atp1832
Rp1833
sVdlzncfyrqbdc
p1834
g2
((lp1835
I5091165
atp1836
Rp1837
sV116162272
p1838
g2
((lp1839
I2248391
atp1840
Rp1841
sVdlxhkcyshbrb
p1842
g2
((lp1843
I4196353
aI7179061
atp1844
Rp1845
sVcwxktypqbnb
p1846
g2
((lp1847
I9176316
atp1848
Rp1849
sVpgxgvyqfbpb
p1850
g2
((lp1851
I4171388
atp1852
Rp1853
sVdskjtdysnblc
p1854
g2
((lp1855
I12557832
aI13171345
atp1856
Rp1857
sVqhznlcyqjbvb
p1858
g2
((lp1859
I957998
atp1860
Rp1861
sVdzpxwcyqkbcc
p1862
g2
((lp1863
I36353712
atp1864
Rp1865
sV221221068
p1866
g2
((lp1867
I8831891
aI2339468
atp1868
Rp1869
sV222038806
p1870
g2
((lp1871
I103726672
atp1872
Rp1873
sVdfmjzfysmbbc
p1874
g2
((lp1875
I36353712
atp1876
Rp1877
sVqbcwscytqbcc
p1878
g2
((lp1879
I3869126
atp1880
Rp1881
sV200086862
p1882
g2
((lp1883
I9655342
atp1884
Rp1885
sVqwzgwfysfbmb
p1886
g2
((lp1887
I14339455
atp1888
Rp1889
sVdnscvkytpbhc
p1890
g2
((lp1891
I8626128
aI12412996
atp1892
Rp1893
sVqlthmcyrmbcb
p1894
g2
((lp1895
I35872672
atp1896
Rp1897
sV220646783
p1898
g2
((lp1899
I3898700
atp1900
Rp1901
sV220018656
p1902
g2
((lp1903
I10449517
atp1904
Rp1905
sV32886992
p1906
g2
((lp1907
I8571220
atp1908
Rp1909
sVdrbhffyscbhc
p1910
g2
((lp1911
I36353712
atp1912
Rp1913
sVddgxjcyqcbnb
p1914
g2
((lp1915
I4445443
atp1916
Rp1917
sV176422492
p1918
g2
((lp1919
I103726672
atp1920
Rp1921
sVcnrktyplbsb
p1922
g2
((lp1923
I9176316
atp1924
Rp1925
sV10295829
p1926
g2
((lp1927
I4866436
atp1928
Rp1929
sVqhznlcyrhbpb
p1930
g2
((lp1931
I957998
atp1932
Rp1933
sV17397700
p1934
g2
((lp1935
I9176316
atp1936
Rp1937
sVdbqxfgysqbnb
p1938
g2
((lp1939
I35872672
atp1940
Rp1941
sVqhznlcyrjblb
p1942
g2
((lp1943
I957998
atp1944
Rp1945
sVqhznlcytdbsb
p1946
g2
((lp1947
I957998
atp1948
Rp1949
sVqfglhlytlbzb
p1950
g2
((lp1951
I7425326
atp1952
Rp1953
sV224915880
p1954
g2
((lp1955
I103726672
atp1956
Rp1957
sV152951312
p1958
g2
((lp1959
I2770679
atp1960
Rp1961
sV215011332
p1962
g2
((lp1963
I46765022
atp1964
Rp1965
sVzzcknynlbvb
p1966
g2
((lp1967
I3869126
atp1968
Rp1969
sV13825045
p1970
g2
((lp1971
I10117225
aI1304978
atp1972
Rp1973
sVdtwcdcyqnbgb
p1974
g2
((lp1975
I11355128
atp1976
Rp1977
sVdvwxcfyrlbtb
p1978
g2
((lp1979
I9025024
atp1980
Rp1981
sVhwjznypcbtb
p1982
g2
((lp1983
I9176316
atp1984
Rp1985
sVdhcmfkytnbfc
p1986
g2
((lp1987
I13133195
atp1988
Rp1989
sVvhnknyngbxb
p1990
g2
((lp1991
I9176316
atp1992
Rp1993
sVxvgznysnbcb
p1994
g2
((lp1995
I4317127
atp1996
Rp1997
sVqhznlcyrjbdc
p1998
g2
((lp1999
I957998
atp2000
Rp2001
sVqhznlcytdbkb
p2002
g2
((lp2003
I957998
atp2004
Rp2005
sVqhznlcysgbhb
p2006
g2
((lp2007
I957998
atp2008
Rp2009
sVqhznlcyrqbkb
p2010
g2
((lp2011
I957998
atp2012
Rp2013
sVqtzvhlytqbmb
p2014
g2
((lp2015
I6590248
atp2016
Rp2017
sVcjnjxypmbcc
p2018
g2
((lp2019
I2248391
atp2020
Rp2021
sV10915541
p2022
g2
((lp2023
I5807873
atp2024
Rp2025
sVqwvqdcyrhbnb
p2026
g2
((lp2027
I3869126
atp2028
Rp2029
sVqbcwscytjblb
p2030
g2
((lp2031
I3869126
atp2032
Rp2033
sVqhznlcyshbfb
p2034
g2
((lp2035
I957998
atp2036
Rp2037
sV221204958
p2038
g2
((lp2039
I103726672
atp2040
Rp2041
sVqwzgwfysnbhb
p2042
g2
((lp2043
I14339455
atp2044
Rp2045
sVqxwxcfysnbrb
p2046
g2
((lp2047
I9025024
atp2048
Rp2049
sVqhznlcythbdb
p2050
g2
((lp2051
I957998
atp2052
Rp2053
sVqqckqytjbbc
p2054
g2
((lp2055
I2650644
aI12710644
atp2056
Rp2057
sVqwpxfgysgbdc
p2058
g2
((lp2059
I35872672
atp2060
Rp2061
sVrvjznynqbhb
p2062
g2
((lp2063
I9176316
atp2064
Rp2065
sVqkmlkkyslbpc
p2066
g2
((lp2067
I152502762
atp2068
Rp2069
sVqknvqcytgblc
p2070
g2
((lp2071
I13199566
atp2072
Rp2073
sVqbcwscyskbkb
p2074
g2
((lp2075
I3869126
atp2076
Rp2077
sVdtwcdcyqpbdc
p2078
g2
((lp2079
I11355128
atp2080
Rp2081
sVqhznlcyqhbjc
p2082
g2
((lp2083
I957998
atp2084
Rp2085
sVgvjznynmbjc
p2086
g2
((lp2087
I9176316
atp2088
Rp2089
sVqhznlcyqdbxb
p2090
g2
((lp2091
I957998
atp2092
Rp2093
sVcbrnxypnblb
p2094
g2
((lp2095
I12679657
atp2096
Rp2097
sVqhznlcysdbdc
p2098
g2
((lp2099
I957998
atp2100
Rp2101
sVdcpvfcyrcbfb
p2102
g2
((lp2103
I17733261
atp2104
Rp2105
sV226175073
p2106
g2
((lp2107
I10449517
atp2108
Rp2109
sVqhznlcyrpbdb
p2110
g2
((lp2111
I957998
atp2112
Rp2113
sVcblnnynkbzb
p2114
g2
((lp2115
I9254651
atp2116
Rp2117
sV223180310
p2118
g2
((lp2119
I103726672
atp2120
Rp2121
sVdfjtblytnbnb
p2122
g2
((lp2123
I36353712
atp2124
Rp2125
sVhlccjlytkbrb
p2126
g2
((lp2127
I144568492
atp2128
Rp2129
sV10973050
p2130
g2
((lp2131
I2066290
atp2132
Rp2133
sV190772472
p2134
g2
((lp2135
I103726672
atp2136
Rp2137
sVdtffmfysnblc
p2138
g2
((lp2139
I6218632
atp2140
Rp2141
sV225328024
p2142
g2
((lp2143
I2248391
atp2144
Rp2145
sVdvcdblysqbkc
p2146
g2
((lp2147
I152502762
atp2148
Rp2149
sV223111067
p2150
g2
((lp2151
I10449517
atp2152
Rp2153
sVqvrgqypdbbc
p2154
g2
((lp2155
I9176316
atp2156
Rp2157
sVqtzncfyrgbxb
p2158
g2
((lp2159
I5091165
atp2160
Rp2161
sV214095472
p2162
g2
((lp2163
I46765022
atp2164
Rp2165
sVdrshmcyrgbxb
p2166
g2
((lp2167
I35872672
atp2168
Rp2169
sV195794182
p2170
g2
((lp2171
I10048858
atp2172
Rp2173
sVxxlcqyqmbhb
p2174
g2
((lp2175
I5761328
atp2176
Rp2177
sVcdzktypnbdb
p2178
g2
((lp2179
I9176316
atp2180
Rp2181
sV223484278
p2182
g2
((lp2183
I103726672
atp2184
Rp2185
sVbzrgqypcbdc
p2186
g2
((lp2187
I9176316
atp2188
Rp2189
sVdlgzpcyqpblc
p2190
g2
((lp2191
I9254651
atp2192
Rp2193
sV207168332
p2194
g2
((lp2195
I103726672
atp2196
Rp2197
sVdqpxfgytdbxb
p2198
g2
((lp2199
I35872672
atp2200
Rp2201
sVtlxfnynmblc
p2202
g2
((lp2203
I5807873
aI3415066
atp2204
Rp2205
sVqqckqytkbgb
p2206
g2
((lp2207
I2650644
atp2208
Rp2209
sVqknvqcytjbdb
p2210
g2
((lp2211
I13199566
atp2212
Rp2213
sV209892702
p2214
g2
((lp2215
I2248391
atp2216
Rp2217
sVdfzlzjysmbwb
p2218
g2
((lp2219
I8626128
atp2220
Rp2221
sVdnnmchyscblb
p2222
g2
((lp2223
I10232080
aI12557832
aI13171345
atp2224
Rp2225
sV207173432
p2226
g2
((lp2227
I103726672
atp2228
Rp2229
sVptwjtypqbfb
p2230
g2
((lp2231
I9176316
atp2232
Rp2233
sV222038657
p2234
g2
((lp2235
I103726672
atp2236
Rp2237
sVqhznlcyqlbhc
p2238
g2
((lp2239
I957998
atp2240
Rp2241
sVdhcmfkytmbpb
p2242
g2
((lp2243
I13133195
atp2244
Rp2245
sV198115262
p2246
g2
((lp2247
I103726672
atp2248
Rp2249
sV191073942
p2250
g2
((lp2251
I103726672
atp2252
Rp2253
sVptsfjlytmbxb
p2254
g2
((lp2255
I146349632
atp2256
Rp2257
sVqhgkkgysjbqb
p2258
g2
((lp2259
I79533992
atp2260
Rp2261
sV220957669
p2262
g2
((lp2263
I103726672
atp2264
Rp2265
sVdnscvkytcbkb
p2266
g2
((lp2267
I8626128
aI12412996
atp2268
Rp2269
sVqsznvfytdblb
p2270
g2
((lp2271
I6218632
atp2272
Rp2273
sV224147025
p2274
g2
((lp2275
I78239482
atp2276
Rp2277
sVdfmjzfytcbgc
p2278
g2
((lp2279
I36353712
atp2280
Rp2281
sVqwpxfgyslbqb
p2282
g2
((lp2283
I35872672
atp2284
Rp2285
sV146196092
p2286
g2
((lp2287
I9677030
atp2288
Rp2289
sVdccqqypgbgc
p2290
g2
((lp2291
I9176316
atp2292
Rp2293
sVvtrbklytmbmc
p2294
g2
((lp2295
I99651752
aI184939169
atp2296
Rp2297
sVdzmsdhyskbhb
p2298
g2
((lp2299
I36353712
atp2300
Rp2301
sVcshpvypqbxb
p2302
g2
((lp2303
I11598854
atp2304
Rp2305
sVzzcknypmbqb
p2306
g2
((lp2307
I3869126
atp2308
Rp2309
sVqpwzhcyqfbbc
p2310
g2
((lp2311
I5807873
aI3415066
atp2312
Rp2313
sV46103782
p2314
g2
((lp2315
I6218632
atp2316
Rp2317
sVqhznlcytnbpc
p2318
g2
((lp2319
I957998
atp2320
Rp2321
sV210402202
p2322
g2
((lp2323
I103726672
atp2324
Rp2325
sV207518202
p2326
g2
((lp2327
I103726672
atp2328
Rp2329
sV57899352
p2330
g2
((lp2331
I2770679
atp2332
Rp2333
sVdrbhffyrlbgc
p2334
g2
((lp2335
I36353712
atp2336
Rp2337
sVqvrgqypcbnc
p2338
g2
((lp2339
I9176316
atp2340
Rp2341
sVqhznlcyrnbzb
p2342
g2
((lp2343
I957998
atp2344
Rp2345
sVqfqvbjyskbhb
p2346
g2
((lp2347
I36353712
atp2348
Rp2349
sVqhznlcysqbkc
p2350
g2
((lp2351
I957998
atp2352
Rp2353
sV16053663
p2354
g2
((lp2355
I9176316
atp2356
Rp2357
sVqwvqdcyrkbqb
p2358
g2
((lp2359
I3869126
atp2360
Rp2361
sVdfjtblytjbjb
p2362
g2
((lp2363
I36353712
atp2364
Rp2365
sV227198253
p2366
g2
((lp2367
I103726672
atp2368
Rp2369
sVqhgkkgyrmbhb
p2370
g2
((lp2371
I79533992
atp2372
Rp2373
sVqbcwscytdbfc
p2374
g2
((lp2375
I3869126
atp2376
Rp2377
sVqckbmjytfbgb
p2378
g2
((lp2379
I5761328
atp2380
Rp2381
sVqxmxccyqdbbc
p2382
g2
((lp2383
I3869126
atp2384
Rp2385
sVqbhtblytgbgb
p2386
g2
((lp2387
I36353712
atp2388
Rp2389
sVqzwshdyqpbpb
p2390
g2
((lp2391
I7888791
atp2392
Rp2393
sVqdvgqypdbzb
p2394
g2
((lp2395
I9176316
atp2396
Rp2397
sVdvwxcfyspbrb
p2398
g2
((lp2399
I9025024
atp2400
Rp2401
sVqdjdmlyvcblc
p2402
g2
((lp2403
I10247538
atp2404
Rp2405
sVqppxfgysdbnb
p2406
g2
((lp2407
I35872672
atp2408
Rp2409
sVqmtrsfyrhbmb
p2410
g2
((lp2411
I17733261
atp2412
Rp2413
sVmzhcqypmbrb
p2414
g2
((lp2415
I11189707
atp2416
Rp2417
sVxvgznytpbpb
p2418
g2
((lp2419
I4317127
atp2420
Rp2421
sV223924498
p2422
g2
((lp2423
I103726672
atp2424
Rp2425
sVqskwflyvcbgb
p2426
g2
((lp2427
I10713113
atp2428
Rp2429
sV221121758
p2430
g2
((lp2431
I9677030
atp2432
Rp2433
sVzprgnlyvdbkb
p2434
g2
((lp2435
I192917973
atp2436
Rp2437
sVrtkgllyvcbfb
p2438
g2
((lp2439
I1612116
atp2440
Rp2441
sVdlgzpcythbbc
p2442
g2
((lp2443
I9254651
atp2444
Rp2445
sV222578841
p2446
g2
((lp2447
I4828172
aI356631
atp2448
Rp2449
sVqwvqdcythblb
p2450
g2
((lp2451
I3869126
atp2452
Rp2453
sVqwvqdcyrpblb
p2454
g2
((lp2455
I3869126
atp2456
Rp2457
sVdnscvkytqbnc
p2458
g2
((lp2459
I8626128
aI12412996
atp2460
Rp2461
sVqtzvhlytpbpb
p2462
g2
((lp2463
I6590248
atp2464
Rp2465
sV220929745
p2466
g2
((lp2467
I77289942
atp2468
Rp2469
sV180835142
p2470
g2
((lp2471
I103726672
atp2472
Rp2473
sVqhznlcytfbsb
p2474
g2
((lp2475
I957998
atp2476
Rp2477
sV224175091
p2478
g2
((lp2479
I9677030
atp2480
Rp2481
sVqbcwscyqkbnc
p2482
g2
((lp2483
I3869126
atp2484
Rp2485
sV152010192
p2486
g2
((lp2487
I7862329
atp2488
Rp2489
sVzzcknynjbsb
p2490
g2
((lp2491
I3869126
atp2492
Rp2493
sVqzbzpypcbpb
p2494
g2
((lp2495
I3254610
atp2496
Rp2497
sV213488732
p2498
g2
((lp2499
I66378772
atp2500
Rp2501
sVqzwshdyrcbkc
p2502
g2
((lp2503
I7888791
atp2504
Rp2505
sV220540233
p2506
g2
((lp2507
I66378772
atp2508
Rp2509
sVdqpxfgyspbwb
p2510
g2
((lp2511
I35872672
atp2512
Rp2513
sVwpwqmlyvdbgb
p2514
g2
((lp2515
I195747183
atp2516
Rp2517
sVqbcwscyqlbbc
p2518
g2
((lp2519
I3869126
atp2520
Rp2521
sVxvvqnynmbrb
p2522
g2
((lp2523
I9176316
atp2524
Rp2525
sVxvgznysdbjc
p2526
g2
((lp2527
I4317127
atp2528
Rp2529
sVdtpstcyqqbqb
p2530
g2
((lp2531
I9025024
atp2532
Rp2533
sVdtffmfytdbgc
p2534
g2
((lp2535
I6218632
atp2536
Rp2537
sV221198908
p2538
g2
((lp2539
I13824984
aI11641945
atp2540
Rp2541
sVrwpjhlytlbdb
p2542
g2
((lp2543
I27588662
atp2544
Rp2545
sVddqxfgythbkb
p2546
g2
((lp2547
I35872672
atp2548
Rp2549
sV221204771
p2550
g2
((lp2551
I103726672
atp2552
Rp2553
sVqwzgwfysdbfc
p2554
g2
((lp2555
I14339455
atp2556
Rp2557
sVdtpstcyslbjb
p2558
g2
((lp2559
I9025024
atp2560
Rp2561
sV7923448
p2562
g2
((lp2563
I4866436
atp2564
Rp2565
sVptsfjlytpbbc
p2566
g2
((lp2567
I146349632
atp2568
Rp2569
sVxxlcqyrcbdb
p2570
g2
((lp2571
I5761328
atp2572
Rp2573
sV220546294
p2574
g2
((lp2575
I77289942
atp2576
Rp2577
sVqdsxgkytjbvb
p2578
g2
((lp2579
I112177462
atp2580
Rp2581
sVqzhpffyrkbpb
p2582
g2
((lp2583
I11355128
atp2584
Rp2585
sV226329479
p2586
g2
((lp2587
I103726672
atp2588
Rp2589
sV41277442
p2590
g2
((lp2591
I8571220
atp2592
Rp2593
sVqhznlcyspbtb
p2594
g2
((lp2595
I957998
atp2596
Rp2597
sVqkxjdcytfbfb
p2598
g2
((lp2599
I9025024
atp2600
Rp2601
sVghvdhlytjbwb
p2602
g2
((lp2603
I35872672
atp2604
Rp2605
sVqbhtblytnbgc
p2606
g2
((lp2607
I36353712
atp2608
Rp2609
sVdtffmfyskbdc
p2610
g2
((lp2611
I6218632
atp2612
Rp2613
sVqknvqcytlbhc
p2614
g2
((lp2615
I13199566
atp2616
Rp2617
sVzrmlnynjbfb
p2618
g2
((lp2619
I3869126
atp2620
Rp2621
sV52513642
p2622
g2
((lp2623
I8571220
atp2624
Rp2625
sV219918845
p2626
g2
((lp2627
I103726672
atp2628
Rp2629
sVxjtznynkbwb
p2630
g2
((lp2631
I2884706
aI4898260
atp2632
Rp2633
sVqdcqqyphbkb
p2634
g2
((lp2635
I9176316
atp2636
Rp2637
sV221472429
p2638
g2
((lp2639
I143449042
atp2640
Rp2641
sV12081535
p2642
g2
((lp2643
I4903590
atp2644
Rp2645
sV224954580
p2646
g2
((lp2647
I91639452
atp2648
Rp2649
sVqknvqcytkblc
p2650
g2
((lp2651
I13199566
atp2652
Rp2653
sVqknvqcysnbcc
p2654
g2
((lp2655
I13199566
atp2656
Rp2657
sVdkpbpjyskbvb
p2658
g2
((lp2659
I146349632
atp2660
Rp2661
sVqqckqytjbjb
p2662
g2
((lp2663
I2650644
atp2664
Rp2665
sVqhgdrkytjbzb
p2666
g2
((lp2667
I154890852
atp2668
Rp2669
sVqmpxfgyshbqb
p2670
g2
((lp2671
I35872672
atp2672
Rp2673
sVqbhtblytqbhb
p2674
g2
((lp2675
I36353712
atp2676
Rp2677
sV224467335
p2678
g2
((lp2679
I103726672
atp2680
Rp2681
sVdlhrpcyqlbgb
p2682
g2
((lp2683
I37047172
atp2684
Rp2685
sV16956457
p2686
g2
((lp2687
I14098228
aI3896245
atp2688
Rp2689
sVqztsqfyshbcb
p2690
g2
((lp2691
I59616222
atp2692
Rp2693
sV96576692
p2694
g2
((lp2695
I2248391
atp2696
Rp2697
sV141166762
p2698
g2
((lp2699
I8571220
atp2700
Rp2701
sVdtpstcysqbfb
p2702
g2
((lp2703
I9025024
atp2704
Rp2705
sVmvcznynpbkc
p2706
g2
((lp2707
I9176316
atp2708
Rp2709
sVdrbhffyspblb
p2710
g2
((lp2711
I36472362
atp2712
Rp2713
sVxxlcqyqnbfb
p2714
g2
((lp2715
I5761328
atp2716
Rp2717
sVvwcrpynpbrb
p2718
g2
((lp2719
I2884706
aI4898260
aI4576146
aI4584030
atp2720
Rp2721
sVdtpstcytfbhc
p2722
g2
((lp2723
I9025024
atp2724
Rp2725
sVdtwcdcyqdbvb
p2726
g2
((lp2727
I11355128
atp2728
Rp2729
sVqvhdwgysgbdb
p2730
g2
((lp2731
I5761328
atp2732
Rp2733
sVdkmbvjytnbcc
p2734
g2
((lp2735
I112177462
atp2736
Rp2737
sVbbjcqyplbfc
p2738
g2
((lp2739
I5807873
aI3415066
atp2740
Rp2741
sVtgvdhlytlbcb
p2742
g2
((lp2743
I35872672
atp2744
Rp2745
sVdgskkkyslbbc
p2746
g2
((lp2747
I7056845
atp2748
Rp2749
sVdcpvfcyqlbdb
p2750
g2
((lp2751
I17733261
atp2752
Rp2753
sVxvgznypgbbc
p2754
g2
((lp2755
I4317127
atp2756
Rp2757
sVqxmxccypqbzb
p2758
g2
((lp2759
I3869126
atp2760
Rp2761
sVnbdknyphbrb
p2762
g2
((lp2763
I3869126
atp2764
Rp2765
sVdrshmcyrdbcc
p2766
g2
((lp2767
I35872672
atp2768
Rp2769
sVqhznlcyrdbvb
p2770
g2
((lp2771
I957998
atp2772
Rp2773
sVqhtxfjysjbkb
p2774
g2
((lp2775
I7092500
atp2776
Rp2777
sVqhznlcyqmbtb
p2778
g2
((lp2779
I957998
atp2780
Rp2781
sVhxcknynjbfc
p2782
g2
((lp2783
I3869126
atp2784
Rp2785
sV12813672
p2786
g2
((lp2787
I9176316
atp2788
Rp2789
sV217440482
p2790
g2
((lp2791
I6922512
atp2792
Rp2793
sVdnscvkysqbgc
p2794
g2
((lp2795
I8626128
aI12412996
atp2796
Rp2797
sVqhznlcyqgblc
p2798
g2
((lp2799
I957998
atp2800
Rp2801
sV16657484
p2802
g2
((lp2803
I8571220
atp2804
Rp2805
sVqqfzpjysjblb
p2806
g2
((lp2807
I3228085
atp2808
Rp2809
sVzvrgqypcbmc
p2810
g2
((lp2811
I9176316
atp2812
Rp2813
sVqbhtblytjbrb
p2814
g2
((lp2815
I36353712
atp2816
Rp2817
sV210401932
p2818
g2
((lp2819
I103726672
atp2820
Rp2821
sVqhznlcyrhbxb
p2822
g2
((lp2823
I957998
atp2824
Rp2825
sVqhznlcyqhbhb
p2826
g2
((lp2827
I957998
atp2828
Rp2829
sVqdqxwcyqkbkb
p2830
g2
((lp2831
I36353712
atp2832
Rp2833
sV40947202
p2834
g2
((lp2835
I1825635
atp2836
Rp2837
sVqqrhqkysmbhc
p2838
g2
((lp2839
I136868962
atp2840
Rp2841
sVqhznlcyrkbrb
p2842
g2
((lp2843
I957998
atp2844
Rp2845
sV219862864
p2846
g2
((lp2847
I4195978
atp2848
Rp2849
sV16053782
p2850
g2
((lp2851
I9176316
atp2852
Rp2853
sVbbkznynnbpc
p2854
g2
((lp2855
I9176316
atp2856
Rp2857
sV16053781
p2858
g2
((lp2859
I9176316
atp2860
Rp2861
sVvhnknynjbbc
p2862
g2
((lp2863
I9176316
atp2864
Rp2865
sVqhgkkgyshbmc
p2866
g2
((lp2867
I79533992
atp2868
Rp2869
sVqwvqdcyrcbpb
p2870
g2
((lp2871
I3869126
atp2872
Rp2873
sV220712530
p2874
g2
((lp2875
I2248391
atp2876
Rp2877
sV172496562
p2878
g2
((lp2879
I10449517
atp2880
Rp2881
sV11019726
p2882
g2
((lp2883
I8712398
atp2884
Rp2885
sVzvkgllytnbxb
p2886
g2
((lp2887
I177559672
atp2888
Rp2889
sV207518312
p2890
g2
((lp2891
I103726672
atp2892
Rp2893
sV225850941
p2894
g2
((lp2895
I89781042
atp2896
Rp2897
sVmwxgjlytlbhb
p2898
g2
((lp2899
I9254651
atp2900
Rp2901
sVqhznlcyrjbtb
p2902
g2
((lp2903
I957998
atp2904
Rp2905
sVqhznlcyshbgc
p2906
g2
((lp2907
I957998
atp2908
Rp2909
sVdlpxpcyqqbbc
p2910
g2
((lp2911
I35872672
atp2912
Rp2913
sVdnscvkytgbdc
p2914
g2
((lp2915
I8626128
aI12412996
atp2916
Rp2917
sV130590942
p2918
g2
((lp2919
I9677030
atp2920
Rp2921
sV40067802
p2922
g2
((lp2923
I8571220
atp2924
Rp2925
sVdnscvkytqbmb
p2926
g2
((lp2927
I8626128
aI12412996
atp2928
Rp2929
sV207517932
p2930
g2
((lp2931
I103726672
atp2932
Rp2933
sVqhgkkgysgbnb
p2934
g2
((lp2935
I79533992
atp2936
Rp2937
sVdfmjzfysnbpb
p2938
g2
((lp2939
I36353712
atp2940
Rp2941
sVqvgtblyspbmc
p2942
g2
((lp2943
I36472362
atp2944
Rp2945
sVdtwcdcyqpblb
p2946
g2
((lp2947
I11355128
atp2948
Rp2949
sVdvwxcfyrnbpc
p2950
g2
((lp2951
I9025024
atp2952
Rp2953
sVdlwdcfyrqbjc
p2954
g2
((lp2955
I12767407
atp2956
Rp2957
sVqtzvhlytlbzb
p2958
g2
((lp2959
I6590248
atp2960
Rp2961
sVdlgzpcyscbmc
p2962
g2
((lp2963
I9254651
atp2964
Rp2965
sVqhznlcyrqbsb
p2966
g2
((lp2967
I957998
atp2968
Rp2969
sVczgctyplbpc
p2970
g2
((lp2971
I16926101
atp2972
Rp2973
sV207173692
p2974
g2
((lp2975
I103726672
atp2976
Rp2977
sVqbcwscyskbsb
p2978
g2
((lp2979
I3869126
atp2980
Rp2981
sV190438492
p2982
g2
((lp2983
I10048858
atp2984
Rp2985
sVdhcmfkytlbkb
p2986
g2
((lp2987
I13133195
atp2988
Rp2989
sVqknvqcysnbkb
p2990
g2
((lp2991
I13199566
atp2992
Rp2993
sVxvgznynqbmc
p2994
g2
((lp2995
I4317127
atp2996
Rp2997
sV36081292
p2998
g2
((lp2999
I6218632
atp3000
Rp3001
sVxvgznytcbkb
p3002
g2
((lp3003
I4317127
atp3004
Rp3005
sVqjpbmgyrlblb
p3006
g2
((lp3007
I36353712
atp3008
Rp3009
sV79561092
p3010
g2
((lp3011
I2770679
atp3012
Rp3013
sVqhznlcyqdbhc
p3014
g2
((lp3015
I957998
atp3016
Rp3017
sVdpshmcyqlblc
p3018
g2
((lp3019
I35872672
atp3020
Rp3021
sVdscszgyrnbfc
p3022
g2
((lp3023
I7756859
atp3024
Rp3025
sV16015770
p3026
g2
((lp3027
I9176316
atp3028
Rp3029
sV220617885
p3030
g2
((lp3031
I66378772
atp3032
Rp3033
sV16015777
p3034
g2
((lp3035
I9176316
atp3036
Rp3037
sV82029242
p3038
g2
((lp3039
I8571220
atp3040
Rp3041
sVzrmlnynkbcb
p3042
g2
((lp3043
I3869126
atp3044
Rp3045
sV105088142
p3046
g2
((lp3047
I2248391
atp3048
Rp3049
sVqbcwscytjbdc
p3050
g2
((lp3051
I3869126
atp3052
Rp3053
sVdvwxcfysfbrb
p3054
g2
((lp3055
I9025024
atp3056
Rp3057
sV191074022
p3058
g2
((lp3059
I103726672
atp3060
Rp3061
sVdlzncfysdbmb
p3062
g2
((lp3063
I5091165
atp3064
Rp3065
sVhwmlglytkbzb
p3066
g2
((lp3067
I12722314
atp3068
Rp3069
sV220134951
p3070
g2
((lp3071
I127858022
atp3072
Rp3073
sVqtzvhlytnblc
p3074
g2
((lp3075
I6590248
atp3076
Rp3077
sVdrbhffytqbhb
p3078
g2
((lp3079
I36472362
atp3080
Rp3081
sVqhznlcyrfbvb
p3082
g2
((lp3083
I957998
atp3084
Rp3085
sVtlxfnynkbkc
p3086
g2
((lp3087
I5807873
aI3415066
atp3088
Rp3089
sVsvrlnynjbqb
p3090
g2
((lp3091
I9176316
atp3092
Rp3093
sVgtmxnynkbcc
p3094
g2
((lp3095
I9176316
atp3096
Rp3097
sVqpptbdytgbbc
p3098
g2
((lp3099
I9046963
atp3100
Rp3101
sVqppxfgyrpbbc
p3102
g2
((lp3103
I35872672
atp3104
Rp3105
sVdlgzpcyqfbkb
p3106
g2
((lp3107
I9254651
atp3108
Rp3109
sVdvwxcfyvcbjc
p3110
g2
((lp3111
I9025024
atp3112
Rp3113
sVqwzgwfyslbnb
p3114
g2
((lp3115
I14339455
atp3116
Rp3117
sVdrshmcyrmbhb
p3118
g2
((lp3119
I35872672
atp3120
Rp3121
sVptxqdlytcbkc
p3122
g2
((lp3123
I4445443
atp3124
Rp3125
sVqsznvfysnbqb
p3126
g2
((lp3127
I6218632
atp3128
Rp3129
sVqdcqqyphbcc
p3130
g2
((lp3131
I9176316
atp3132
Rp3133
sVmrzpqypgbqb
p3134
g2
((lp3135
I3254610
atp3136
Rp3137
sVdlhrpcyqkbsb
p3138
g2
((lp3139
I37047172
atp3140
Rp3141
sVqwvqdcyqlbnb
p3142
g2
((lp3143
I3869126
atp3144
Rp3145
sVqrphbdyqmbxb
p3146
g2
((lp3147
I12557832
aI13171345
atp3148
Rp3149
sVzqpddlysqbnc
p3150
g2
((lp3151
I12557832
aI13171345
atp3152
Rp3153
sVqmtrsfysgbnb
p3154
g2
((lp3155
I17733261
atp3156
Rp3157
sVqqckqypkbvb
p3158
g2
((lp3159
I2650644
atp3160
Rp3161
sV135817552
p3162
g2
((lp3163
I9677030
atp3164
Rp3165
sVqbcwscyrlbhb
p3166
g2
((lp3167
I3869126
atp3168
Rp3169
sV69795622
p3170
g2
((lp3171
I8571220
atp3172
Rp3173
sV196218672
p3174
g2
((lp3175
I9919718
atp3176
Rp3177
sVjtjsclytcbmc
p3178
g2
((lp3179
I144568492
atp3180
Rp3181
sVgkbqqyphbzb
p3182
g2
((lp3183
I1907671
atp3184
Rp3185
sV79027432
p3186
g2
((lp3187
I2248391
atp3188
Rp3189
sVdtffmfysqbfc
p3190
g2
((lp3191
I6218632
atp3192
Rp3193
sVqhznlcytmbzb
p3194
g2
((lp3195
I957998
atp3196
Rp3197
sVxsvcglythbkb
p3198
g2
((lp3199
I94279652
atp3200
Rp3201
sV139369032
p3202
g2
((lp3203
I10449517
atp3204
Rp3205
sV223924520
p3206
g2
((lp3207
I103726672
atp3208
Rp3209
sVtlxfnyngbkc
p3210
g2
((lp3211
I5807873
aI3415066
atp3212
Rp3213
sVrnkjnynpbrb
p3214
g2
((lp3215
I2650644
atp3216
Rp3217
sV11978851
p3218
g2
((lp3219
I9176316
atp3220
Rp3221
sVzzcknynmbkc
p3222
g2
((lp3223
I3869126
atp3224
Rp3225
sVqrqjncyqhblb
p3226
g2
((lp3227
I12557832
aI11440169
aI13171345
atp3228
Rp3229
sVdnscvkytjbwb
p3230
g2
((lp3231
I8626128
aI12412996
atp3232
Rp3233
sVqfwszcyqlbnc
p3234
g2
((lp3235
I12767407
atp3236
Rp3237
sV14802215
p3238
g2
((lp3239
I8571220
atp3240
Rp3241
sVqhznlcytlbtb
p3242
g2
((lp3243
I957998
atp3244
Rp3245
sV219507064
p3246
g2
((lp3247
I89781042
atp3248
Rp3249
sVqhznlcytcbpc
p3250
g2
((lp3251
I957998
atp3252
Rp3253
sVqwpxfgyrkbvb
p3254
g2
((lp3255
I35872672
atp3256
Rp3257
sVdwcknynjbvb
p3258
g2
((lp3259
I3869126
atp3260
Rp3261
sV145264262
p3262
g2
((lp3263
I10672496
aI7536761
atp3264
Rp3265
sVdkshmcyqgbkb
p3266
g2
((lp3267
I35872672
atp3268
Rp3269
sV219918813
p3270
g2
((lp3271
I103726672
atp3272
Rp3273
sVmdddflytfbfb
p3274
g2
((lp3275
I4445443
atp3276
Rp3277
sVdnscvkytcbcc
p3278
g2
((lp3279
I8626128
aI12412996
atp3280
Rp3281
sVqwzgwfysmbcc
p3282
g2
((lp3283
I14339455
atp3284
Rp3285
sVqcgkkgyrnbwb
p3286
g2
((lp3287
I79533992
atp3288
Rp3289
sVqhznlcyqpbnb
p3290
g2
((lp3291
I957998
atp3292
Rp3293
sVcfjdxyqhbfc
p3294
g2
((lp3295
I12916974
atp3296
Rp3297
sVqmsbdhythbqb
p3298
g2
((lp3299
I65521492
atp3300
Rp3301
sV220035306
p3302
g2
((lp3303
I2248391
atp3304
Rp3305
sVpxvctytkbkb
p3306
g2
((lp3307
I35660732
atp3308
Rp3309
sVdbrsmgyskbqb
p3310
g2
((lp3311
I9276695
atp3312
Rp3313
sVqtzvhlytlbjc
p3314
g2
((lp3315
I6590248
atp3316
Rp3317
sVgkbqqypjbdb
p3318
g2
((lp3319
I1907671
atp3320
Rp3321
sV14584828
p3322
g2
((lp3323
I6788139
aI3286181
aI2770679
atp3324
Rp3325
sV15754386
p3326
g2
((lp3327
I9176316
atp3328
Rp3329
sVdcpvfcyqqbrb
p3330
g2
((lp3331
I17733261
atp3332
Rp3333
sV221685539
p3334
g2
((lp3335
I9919718
atp3336
Rp3337
sVqhgkkgysgbwb
p3338
g2
((lp3339
I79533992
atp3340
Rp3341
sV222702981
p3342
g2
((lp3343
I8926884
atp3344
Rp3345
sV117990382
p3346
g2
((lp3347
I9709709
atp3348
Rp3349
sV202675472
p3350
g2
((lp3351
I9677030
atp3352
Rp3353
sVzmzfglytlbpb
p3354
g2
((lp3355
I146894232
atp3356
Rp3357
sVqrwqwfyrmbnb
p3358
g2
((lp3359
I88380082
atp3360
Rp3361
sVcnrktyplblc
p3362
g2
((lp3363
I9176316
atp3364
Rp3365
sV103745652
p3366
g2
((lp3367
I3852031
atp3368
Rp3369
sV15754418
p3370
g2
((lp3371
I9176316
atp3372
Rp3373
sVqknvqcytdbwb
p3374
g2
((lp3375
I13199566
atp3376
Rp3377
sVlvlbqypcbtb
p3378
g2
((lp3379
I2650644
atp3380
Rp3381
sV225862250
p3382
g2
((lp3383
I103726672
atp3384
Rp3385
sVqhznlcytlblb
p3386
g2
((lp3387
I957998
atp3388
Rp3389
sV225862255
p3390
g2
((lp3391
I103726672
atp3392
Rp3393
sVqhznlcyqjbfc
p3394
g2
((lp3395
I957998
atp3396
Rp3397
sVqhznlcytfbkb
p3398
g2
((lp3399
I957998
atp3400
Rp3401
sV220711574
p3402
g2
((lp3403
I2248391
atp3404
Rp3405
sV91725052
p3406
g2
((lp3407
I8571220
atp3408
Rp3409
sVqnjhldyrcbwb
p3410
g2
((lp3411
I62658242
atp3412
Rp3413
sV223266547
p3414
g2
((lp3415
I27365402
aI184314572
atp3416
Rp3417
sVqqckqyqmblb
p3418
g2
((lp3419
I2650644
atp3420
Rp3421
sV166724842
p3422
g2
((lp3423
I2248391
atp3424
Rp3425
sVqhznlcyqmbcb
p3426
g2
((lp3427
I957998
atp3428
Rp3429
sVqkxjdcyqnbqb
p3430
g2
((lp3431
I9025024
atp3432
Rp3433
sVqhznlcytnbfb
p3434
g2
((lp3435
I957998
atp3436
Rp3437
sVqknvqcytnbkc
p3438
g2
((lp3439
I13199566
atp3440
Rp3441
sVxvgznysqbfb
p3442
g2
((lp3443
I4317127
atp3444
Rp3445
sVqtzvhlytpbxb
p3446
g2
((lp3447
I6590248
atp3448
Rp3449
sVkzjdqypdbhb
p3450
g2
((lp3451
I2884706
aI4898260
aI4576146
aI4584030
atp3452
Rp3453
sVqhznlcytgbhc
p3454
g2
((lp3455
I957998
atp3456
Rp3457
sV13425016
p3458
g2
((lp3459
I7092500
atp3460
Rp3461
sVdrbhffysmbjb
p3462
g2
((lp3463
I36472362
atp3464
Rp3465
sV221259627
p3466
g2
((lp3467
I82125592
atp3468
Rp3469
sVxxlcqyrfbjb
p3470
g2
((lp3471
I5761328
atp3472
Rp3473
sV75832012
p3474
g2
((lp3475
I2770679
atp3476
Rp3477
sVdvwxcfysjbgc
p3478
g2
((lp3479
I9025024
atp3480
Rp3481
sVgzcrpynqbpb
p3482
g2
((lp3483
I2884706
aI4898260
aI4576146
aI4584030
atp3484
Rp3485
sV222882675
p3486
g2
((lp3487
I127858022
atp3488
Rp3489
sV10816299
p3490
g2
((lp3491
I2884706
aI4898260
atp3492
Rp3493
sV12802163
p3494
g2
((lp3495
I9176316
atp3496
Rp3497
sV12855343
p3498
g2
((lp3499
I1785570
atp3500
Rp3501
sVzmzfglyvdbmb
p3502
g2
((lp3503
I146894232
atp3504
Rp3505
sV96581902
p3506
g2
((lp3507
I2248391
atp3508
Rp3509
sVshzwdlytgbgb
p3510
g2
((lp3511
I152502762
atp3512
Rp3513
sVqcgkkgyrmbjc
p3514
g2
((lp3515
I79533992
atp3516
Rp3517
sV17397612
p3518
g2
((lp3519
I9176316
atp3520
Rp3521
sV187258472
p3522
g2
((lp3523
I3918990
atp3524
Rp3525
sVxvgznyrcbdb
p3526
g2
((lp3527
I4317127
atp3528
Rp3529
sVdgmlkkyspbsb
p3530
g2
((lp3531
I152502762
atp3532
Rp3533
sVqxmxccyqdbjb
p3534
g2
((lp3535
I3869126
atp3536
Rp3537
sVdlwdcfysnbnc
p3538
g2
((lp3539
I12767407
atp3540
Rp3541
sV44543132
p3542
g2
((lp3543
I8074077
atp3544
Rp3545
sVqwvqdcytpbrb
p3546
g2
((lp3547
I3869126
atp3548
Rp3549
sVvhnknynhbvb
p3550
g2
((lp3551
I9176316
atp3552
Rp3553
sV222002184
p3554
g2
((lp3555
I10672496
aI7536761
atp3556
Rp3557
sVqqbhwcyrgbgc
p3558
g2
((lp3559
I2635433
aI53124732
aI12916974
atp3560
Rp3561
sV151776982
p3562
g2
((lp3563
I8571220
atp3564
Rp3565
sV164252912
p3566
g2
((lp3567
I9264635
atp3568
Rp3569
sVqsznvfyrkbsb
p3570
g2
((lp3571
I6218632
atp3572
Rp3573
sVdjvbfdyqlblb
p3574
g2
((lp3575
I36353712
atp3576
Rp3577
sV34924472
p3578
g2
((lp3579
I2770679
atp3580
Rp3581
sVqbhtblytlbtb
p3582
g2
((lp3583
I36353712
atp3584
Rp3585
sV12812861
p3586
g2
((lp3587
I9176316
atp3588
Rp3589
sVxsvcglytgbvb
p3590
g2
((lp3591
I94279652
atp3592
Rp3593
sVqknvqcytkbkb
p3594
g2
((lp3595
I13199566
atp3596
Rp3597
sVqwvqdcyqmbsb
p3598
g2
((lp3599
I3869126
atp3600
Rp3601
sV221693983
p3602
g2
((lp3603
I7092500
atp3604
Rp3605
sV11492674
p3606
g2
((lp3607
I494421
atp3608
Rp3609
sVxvgznyrfbkc
p3610
g2
((lp3611
I4317127
atp3612
Rp3613
sV220135017
p3614
g2
((lp3615
I127858022
atp3616
Rp3617
sVdndnclysqbqb
p3618
g2
((lp3619
I36353712
atp3620
Rp3621
sV222038794
p3622
g2
((lp3623
I103726672
atp3624
Rp3625
sVhxcknynjbnc
p3626
g2
((lp3627
I3869126
atp3628
Rp3629
sV13682482
p3630
g2
((lp3631
I7092500
atp3632
Rp3633
sVqbcwscyrkbmc
p3634
g2
((lp3635
I3869126
atp3636
Rp3637
sV194275252
p3638
g2
((lp3639
I9677030
atp3640
Rp3641
sVqknvqcysqbdb
p3642
g2
((lp3643
I13199566
atp3644
Rp3645
sVqpptbdytcbzb
p3646
g2
((lp3647
I9046963
atp3648
Rp3649
sV67405422
p3650
g2
((lp3651
I484821
atp3652
Rp3653
sVqqckqyrkbbc
p3654
g2
((lp3655
I2650644
atp3656
Rp3657
sVqkxjdcysnbcc
p3658
g2
((lp3659
I9025024
atp3660
Rp3661
sVzzcknypjbrb
p3662
g2
((lp3663
I3869126
atp3664
Rp3665
sVdfzlzjysnblb
p3666
g2
((lp3667
I8626128
atp3668
Rp3669
sV192633802
p3670
g2
((lp3671
I9264635
atp3672
Rp3673
sV203917242
p3674
g2
((lp3675
I7092500
atp3676
Rp3677
sVqbcwscysjbnc
p3678
g2
((lp3679
I3869126
atp3680
Rp3681
sV223822753
p3682
g2
((lp3683
I103726672
atp3684
Rp3685
sV220722060
p3686
g2
((lp3687
I10449517
atp3688
Rp3689
sVxvgznytqbvb
p3690
g2
((lp3691
I4317127
atp3692
Rp3693
sVdskjtdyshbrb
p3694
g2
((lp3695
I12557832
aI13171345
atp3696
Rp3697
sVdtffmfytpbgc
p3698
g2
((lp3699
I6218632
atp3700
Rp3701
sVqhznlcyspbcb
p3702
g2
((lp3703
I957998
atp3704
Rp3705
sVwcvdjlytnbmc
p3706
g2
((lp3707
I94279652
aI184010716
atp3708
Rp3709
sV7387691
p3710
g2
((lp3711
I2884706
atp3712
Rp3713
sVdskjtdyrlbbc
p3714
g2
((lp3715
I12557832
aI13171345
atp3716
Rp3717
sV221204905
p3718
g2
((lp3719
I103726672
atp3720
Rp3721
sVmvcznynnbnc
p3722
g2
((lp3723
I9176316
atp3724
Rp3725
sVqbcwscytkbrb
p3726
g2
((lp3727
I3869126
atp3728
Rp3729
sVwcvdjlytlbrb
p3730
g2
((lp3731
I94279652
aI184010716
atp3732
Rp3733
sVdlpxpcyqfbrb
p3734
g2
((lp3735
I35872672
atp3736
Rp3737
sVqqckqysdblb
p3738
g2
((lp3739
I2650644
atp3740
Rp3741
sV226818876
p3742
g2
((lp3743
I89781042
atp3744
Rp3745
sV219606885
p3746
g2
((lp3747
I7530046
atp3748
Rp3749
sVmvcznynqbpb
p3750
g2
((lp3751
I9176316
atp3752
Rp3753
sVqspxfgytcbxb
p3754
g2
((lp3755
I35872672
atp3756
Rp3757
sVqdxmtkytpbhc
p3758
g2
((lp3759
I5091165
atp3760
Rp3761
sV227052577
p3762
g2
((lp3763
I1602608
atp3764
Rp3765
sV226133605
p3766
g2
((lp3767
I9677030
atp3768
Rp3769
sVdfmjzfyrqbkb
p3770
g2
((lp3771
I36353712
atp3772
Rp3773
sVjtjsclytdbhb
p3774
g2
((lp3775
I144568492
atp3776
Rp3777
sVqvrgqypcbfc
p3778
g2
((lp3779
I9176316
atp3780
Rp3781
sVqhgkkgysgbfb
p3782
g2
((lp3783
I79533992
atp3784
Rp3785
sVbbjcqypjblc
p3786
g2
((lp3787
I5807873
aI3415066
atp3788
Rp3789
sVqztsqfyskbwb
p3790
g2
((lp3791
I59616222
atp3792
Rp3793
sVqlsvthysdbcc
p3794
g2
((lp3795
I53124732
aI12916974
atp3796
Rp3797
sVqmtrsfysdbkc
p3798
g2
((lp3799
I17733261
atp3800
Rp3801
sV94557642
p3802
g2
((lp3803
I10048858
atp3804
Rp3805
sVfcfkqypmbpb
p3806
g2
((lp3807
I5091165
atp3808
Rp3809
sVhvvndlytcbbc
p3810
g2
((lp3811
I4445443
atp3812
Rp3813
sVdflcsgyrmbbc
p3814
g2
((lp3815
I10672496
aI7536761
atp3816
Rp3817
sV100676592
p3818
g2
((lp3819
I2248391
atp3820
Rp3821
sVdnscvkytdbgb
p3822
g2
((lp3823
I8626128
aI12412996
atp3824
Rp3825
sVqbcwscytqbsb
p3826
g2
((lp3827
I3869126
atp3828
Rp3829
sV223924518
p3830
g2
((lp3831
I103726672
atp3832
Rp3833
sV9763933
p3834
g2
((lp3835
I2884706
atp3836
Rp3837
sVdnscvkytpbxb
p3838
g2
((lp3839
I8626128
aI12412996
atp3840
Rp3841
sV203064502
p3842
g2
((lp3843
I11015762
atp3844
Rp3845
sVrhsjmlyvcbkb
p3846
g2
((lp3847
I144568492
atp3848
Rp3849
sVrgpxnynpbcb
p3850
g2
((lp3851
I9176316
atp3852
Rp3853
sVrwpjhlytnbgb
p3854
g2
((lp3855
I27588662
atp3856
Rp3857
sVqztsqfyskbnb
p3858
g2
((lp3859
I59616222
atp3860
Rp3861
sVqsxhlhyslbfb
p3862
g2
((lp3863
I8930138
atp3864
Rp3865
sVqcgtwdyrhbfb
p3866
g2
((lp3867
I7874734
atp3868
Rp3869
sVrwpjhlytmbjb
p3870
g2
((lp3871
I27588662
atp3872
Rp3873
sVtlxfnynqblc
p3874
g2
((lp3875
I5807873
aI3415066
atp3876
Rp3877
sVqknvqcytdbgc
p3878
g2
((lp3879
I13199566
atp3880
Rp3881
sVdskjtdyshbjb
p3882
g2
((lp3883
I12557832
aI13171345
atp3884
Rp3885
sV170496582
p3886
g2
((lp3887
I103726672
atp3888
Rp3889
sVqbcwscyscbrb
p3890
g2
((lp3891
I3869126
atp3892
Rp3893
sVddslnynjbdb
p3894
g2
((lp3895
I9176316
atp3896
Rp3897
sV219899111
p3898
g2
((lp3899
I18322801
atp3900
Rp3901
sVqfwszcyqjblc
p3902
g2
((lp3903
I12767407
atp3904
Rp3905
sVcgxkhlytlbpc
p3906
g2
((lp3907
I91730022
atp3908
Rp3909
sVqqhtblytdblc
p3910
g2
((lp3911
I36353712
atp3912
Rp3913
sVqknvqcytmbcb
p3914
g2
((lp3915
I13199566
atp3916
Rp3917
sVqztsqfytgbfc
p3918
g2
((lp3919
I59616222
atp3920
Rp3921
sVqhznlcyrlbwb
p3922
g2
((lp3923
I957998
atp3924
Rp3925
sVqhznlcyrmblc
p3926
g2
((lp3927
I957998
atp3928
Rp3929
sVqbcwscyqmbwb
p3930
g2
((lp3931
I3869126
atp3932
Rp3933
sV170500062
p3934
g2
((lp3935
I103726672
atp3936
Rp3937
sVzzcknynlbfc
p3938
g2
((lp3939
I3869126
atp3940
Rp3941
sVnhpwnynkbwb
p3942
g2
((lp3943
I9176316
atp3944
Rp3945
sVpgxgvypnbfb
p3946
g2
((lp3947
I4171388
atp3948
Rp3949
sVqhznlcyrgbkc
p3950
g2
((lp3951
I957998
atp3952
Rp3953
sV223822971
p3954
g2
((lp3955
I103726672
atp3956
Rp3957
sVdmpmrfysdbcb
p3958
g2
((lp3959
I12130423
atp3960
Rp3961
sV175209932
p3962
g2
((lp3963
I103726672
atp3964
Rp3965
sV225000475
p3966
g2
((lp3967
I27365402
aI184314572
atp3968
Rp3969
sVczllpynpbcc
p3970
g2
((lp3971
I7092500
atp3972
Rp3973
sVdpshmcyrpbqb
p3974
g2
((lp3975
I35872672
atp3976
Rp3977
sV9813901
p3978
g2
((lp3979
I4866436
atp3980
Rp3981
sVdvvzhcyqgbnb
p3982
g2
((lp3983
I11189707
atp3984
Rp3985
sV207517872
p3986
g2
((lp3987
I103726672
atp3988
Rp3989
sVdktfljysqbsb
p3990
g2
((lp3991
I134435532
atp3992
Rp3993
sV122809682
p3994
g2
((lp3995
I10472905
atp3996
Rp3997
sVqqckqytjbkc
p3998
g2
((lp3999
I2692650
aI12710644
atp4000
Rp4001
s.