(dp0
I344576
I2
sI18420231
I2
sI4113422
I4
sI3249172
I4
sI1686446
I4
sI1768471
I3
sI18518045
I4
sI3479472
I2
sI1799771
I0
sI2087461
I4
sI18286122
I1
sI523869
I1
sI212018
I1
sI3169922
I3
sI3140362
I0
sI1020990
I4
sI209983
I0
sI8116802
I2
sI1712197
I2
sI6179402
I1
sI14204492
I0
sI17360482
I2
sI950864
I3
sI1945681
I2
sI5889112
I2
sI594011
I2
sI1465949
I1
sI1485406
I0
sI1723784
I4
sI345700
I0
sI135785
I0
sI450158
I4
sI160880
I3
sI3494522
I2
sI1728639
I0
sI1475712
I1
sI361602
I2
sI8204422
I2
sI3749512
I3
sI1658507
I3
sI2445452
I2
sI18979469
I4
sI559762
I0
sI1819283
I4
sI1979541
I0
sI7399062
I0
sI1301664
I1
sI265380
I3
sI15207082
I0
sI322734
I0
sI592049
I2
sI428729
I0
sI22211
I0
sI5423812
I2
sI211654
I3
sI3587272
I0
sI18365134
I3
sI16041172
I2
sI397533
I0
sI1329886
I4
sI1743653
I2
sI7760612
I0
sI1495269
I3
sI1427686
I1
sI4866792
I2
sI1703207
I4
sI1626408
I3
sI5511412
I2
sI1470198
I4
sI16783612
I2
sI14488842
I0
sI6884482
I4
sI18688785
I2
sI1440018
I4
sI407827
I0
sI6941462
I0
sI18670364
I2
sI1746717
I0
sI9658672
I3
sI7969572
I0
sI14550662
I4
sI63782
I2
sI13297322
I4
sI12064552
I3
sI1350959
I4
sI1562928
I4
sI14536072
I0
sI1754930
I3
sI2352951
I2
sI565564
I0
sI1034045
I2
sI14414142
I0
sI7777602
I2
sI17302342
I2
sI1391435
I2
sI1603918
I2
sI1610580
I0
sI1534862
I2
sI3891032
I2
sI1767770
I3
sI5717192
I2
sI2220381
I0
sI7340392
I2
sI8047932
I0
sI85362
I2
sI818238
I0
sI18284921
I4
sI1585532
I2
sI235498
I2
sI243079
I0
sI11732872
I1
sI1601931
I4
sI6118722
I2
sI1501582
I0
sI1695640
I4
sI1741214
I2
sI1481631
I2
sI516512
I0
sI19875
I0
sI639910
I1
sI1401259
I4
sI345516
I2
sI18689454
I4
sI1428911
I0
sI484784
I1
sI4208542
I3
sI1561528
I2
sI1735610
I3
sI4589502
I2
sI378314
I2
sI333772
I4
sI145874
I2
sI1703379
I0
sI365014
I2
sI1687517
I2
sI1486302
I3
sI55272
I2
sI14185962
I1
sI1635668
I1
sI1302186
I1
sI3239422
I1
s.